; Function Attrs: mustprogress uwtable
define void @_ZN2mu10ParserBase17EnableBuiltInOprtEb(ptr noundef nonnull align 8 dereferenceable(596) %0, i1 noundef zeroext %1) local_unnamed_addr #7 align 2 personality ptr @__gxx_personality_v0 {
  %3 = zext i1 %1 to i8
  %4 = getelementptr inbounds i8, ptr %0, i64 464
  store i8 %3, ptr %4, align 8
  %5 = getelementptr inbounds i8, ptr %0, i64 8
  store i64 ptrtoint (ptr @_ZNK2mu10ParserBase11ParseStringEv to i64), ptr %5, align 8
  %.repack1.i = getelementptr inbounds i8, ptr %0, i64 16
  store i64 0, ptr %.repack1.i, align 8
  %6 = getelementptr inbounds i8, ptr %0, i64 72
  %7 = load ptr, ptr %6, align 8
  %8 = getelementptr inbounds i8, ptr %0, i64 80
  %9 = load ptr, ptr %8, align 8
  %.not.i.i.i = icmp eq ptr %9, %7
  br i1 %.not.i.i.i, label %_ZNK2mu10ParserBase6ReInitEv.exit, label %.lr.ph.i.i.i.i.i.i

.lr.ph.i.i.i.i.i.i:                               ; preds = %2, %.lr.ph.i.i.i.i.i.i
  %.05.i.i.i.i.i.i = phi ptr [ %10, %.lr.ph.i.i.i.i.i.i ], [ %7, %2 ]
  tail call void @_ZNSt7__cxx1112basic_stringIcSt11char_traitsIcESaIcEED1Ev(ptr noundef nonnull align 8 dereferenceable(32) %.05.i.i.i.i.i.i) #23
  %10 = getelementptr inbounds i8, ptr %.05.i.i.i.i.i.i, i64 32
  %.not.i.i.i.i.i.i = icmp eq ptr %10, %9
  br i1 %.not.i.i.i.i.i.i, label %_ZSt8_DestroyIPNSt7__cxx1112basic_stringIcSt11char_traitsIcESaIcEEES5_EvT_S7_RSaIT0_E.exit.i.i.i, label %.lr.ph.i.i.i.i.i.i, !llvm.loop !5

_ZSt8_DestroyIPNSt7__cxx1112basic_stringIcSt11char_traitsIcESaIcEEES5_EvT_S7_RSaIT0_E.exit.i.i.i: ; preds = %.lr.ph.i.i.i.i.i.i
  store ptr %7, ptr %8, align 8
  br label %_ZNK2mu10ParserBase6ReInitEv.exit

_ZNK2mu10ParserBase6ReInitEv.exit:                ; preds = %2, %_ZSt8_DestroyIPNSt7__cxx1112basic_stringIcSt11char_traitsIcESaIcEEES5_EvT_S7_RSaIT0_E.exit.i.i.i
  %11 = getelementptr inbounds i8, ptr %0, i64 24
  tail call void @_ZN2mu14ParserByteCode5clearEv(ptr noundef nonnull align 8 dereferenceable(48) %11)
  %12 = getelementptr inbounds i8, ptr %0, i64 120
  %13 = load ptr, ptr %12, align 8
  tail call void @_ZN2mu17ParserTokenReader6ReInitEv(ptr noundef nonnull align 8 dereferenceable(400) %13)
  ret void
}